target datalayout = "e-m:e-p270:32:32-p271:32:32-p272:64:64-i64:64-i128:128-f80:128-n8:16:32:64-S128"
target triple = "x86_64-pc-linux-gnu"

%struct.interval = type { i64, i64 }

; Function Attrs: nounwind uwtable
define i32 @PGTYPEStimestamp_sub_interval(ptr noundef %0, ptr noundef %1, ptr noundef %2) #0 {
  %4 = alloca ptr, align 8
  %5 = alloca ptr, align 8
  %6 = alloca ptr, align 8
  %7 = alloca %struct.interval, align 8
  store ptr %0, ptr %4, align 8
  store ptr %1, ptr %5, align 8
  store ptr %2, ptr %6, align 8
  call void @llvm.lifetime.start.p0(i64 16, ptr %7) #11
  %8 = load ptr, ptr %5, align 8
  %9 = getelementptr inbounds nuw %struct.interval, ptr %8, i32 0, i32 1
  %10 = load i64, ptr %9, align 8
  %11 = sub i64 0, %10
  %12 = getelementptr inbounds nuw %struct.interval, ptr %7, i32 0, i32 1
  store i64 %11, ptr %12, align 8
  %13 = load ptr, ptr %5, align 8
  %14 = getelementptr inbounds nuw %struct.interval, ptr %13, i32 0, i32 0
  %15 = load i64, ptr %14, align 8
  %16 = sub i64 0, %15
  %17 = getelementptr inbounds nuw %struct.interval, ptr %7, i32 0, i32 0
  store i64 %16, ptr %17, align 8
  %18 = load ptr, ptr %4, align 8
  %19 = load ptr, ptr %6, align 8
  %20 = call i32 @PGTYPEStimestamp_add_interval(ptr noundef %18, ptr noundef %7, ptr noundef %19)
  call void @llvm.lifetime.end.p0(i64 16, ptr %7) #11
  ret i32 %20
}