; Function Attrs: nounwind uwtable
define range(i32 -1, 1) i32 @PGTYPEStimestamp_sub_interval(ptr noundef captures(none) %0, ptr noundef readonly captures(none) %1, ptr noundef writeonly captures(none) %2) local_unnamed_addr #0 {
  %4 = alloca %struct.interval, align 8
  call void @llvm.lifetime.start.p0(i64 16, ptr nonnull %4) #10
  %5 = getelementptr inbounds nuw i8, ptr %1, i64 8
  %6 = load i64, ptr %5, align 8
  %7 = sub i64 0, %6
  %8 = getelementptr inbounds nuw i8, ptr %4, i64 8
  store i64 %7, ptr %8, align 8
  %9 = load i64, ptr %1, align 8
  %10 = sub i64 0, %9
  store i64 %10, ptr %4, align 8
  %11 = call i32 @PGTYPEStimestamp_add_interval(ptr noundef %0, ptr noundef nonnull %4, ptr noundef %2)
  call void @llvm.lifetime.end.p0(i64 16, ptr nonnull %4) #10
  ret i32 %11
}